; Function Attrs: mustprogress uwtable
define void @_ZN6icu_7511FormattableC2ERKNS_13UnicodeStringE(ptr noundef nonnull align 8 dereferenceable(112) %this, ptr noundef nonnull align 8 dereferenceable(64) %stringToCopy) unnamed_addr #1 align 2 personality ptr @__gxx_personality_v0 {
invoke.cont:
  store ptr getelementptr inbounds ({ [5 x ptr] }, ptr @_ZTVN6icu_7511FormattableE, i64 0, i32 0, i64 2), ptr %this, align 8
  %fBogus = getelementptr inbounds i8, ptr %this, i64 48
  store ptr getelementptr inbounds ({ [13 x ptr] }, ptr @_ZTVN6icu_7513UnicodeStringE, i64 0, i32 0, i64 2), ptr %fBogus, align 8
  %fUnion2.i = getelementptr inbounds i8, ptr %this, i64 56
  store i16 2, ptr %fUnion2.i, align 8
  %fValue.i = getelementptr inbounds i8, ptr %this, i64 8
  store i64 0, ptr %fValue.i, align 8
  %fType.i = getelementptr inbounds i8, ptr %this, i64 40
  store i32 2, ptr %fType.i, align 8
  %fDecimalStr.i = getelementptr inbounds i8, ptr %this, i64 24
  tail call void @llvm.memset.p0.i64(ptr noundef nonnull align 8 dereferenceable(16) %fDecimalStr.i, i8 0, i64 16, i1 false)
  invoke void @_ZN6icu_7513UnicodeString10setToBogusEv(ptr noundef nonnull align 8 dereferenceable(64) %fBogus)
          to label %invoke.cont3 unwind label %lpad2

invoke.cont3:                                     ; preds = %invoke.cont
  store i32 3, ptr %fType.i, align 8
  %call = tail call noundef ptr @_ZN6icu_757UMemorynwEm(i64 noundef 64) #16
  %new.isnull = icmp eq ptr %call, null
  br i1 %new.isnull, label %new.cont, label %new.notnull

new.notnull:                                      ; preds = %invoke.cont3
  invoke void @_ZN6icu_7513UnicodeStringC1ERKS0_(ptr noundef nonnull align 8 dereferenceable(64) %call, ptr noundef nonnull align 8 dereferenceable(64) %stringToCopy)
          to label %new.cont unwind label %lpad4

new.cont:                                         ; preds = %new.notnull, %invoke.cont3
  store ptr %call, ptr %fValue.i, align 8
  ret void

lpad2:                                            ; preds = %invoke.cont
  %0 = landingpad { ptr, i32 }
          cleanup
  br label %ehcleanup

lpad4:                                            ; preds = %new.notnull
  %1 = landingpad { ptr, i32 }
          cleanup
  tail call void @_ZN6icu_757UMemorydlEPv(ptr noundef nonnull %call) #16
  br label %ehcleanup

ehcleanup:                                        ; preds = %lpad4, %lpad2
  %.pn = phi { ptr, i32 } [ %1, %lpad4 ], [ %0, %lpad2 ]
  tail call void @_ZN6icu_7513UnicodeStringD1Ev(ptr noundef nonnull align 8 dereferenceable(64) %fBogus) #16
  tail call void @_ZN6icu_757UObjectD2Ev(ptr noundef nonnull align 8 dereferenceable(8) %this) #16
  resume { ptr, i32 } %.pn
}